; Function Attrs: null_pointer_is_valid sspstrong uwtable
define internal void @h225_stat_reset(ptr noundef %0) #0 {
  %2 = getelementptr inbounds nuw i8, ptr %0, i64 20
  %3 = load i32, ptr %2, align 4
  %.not = icmp eq i32 %3, 0
  br i1 %.not, label %._crit_edge, label %.lr.ph

.lr.ph:                                           ; preds = %1, %.lr.ph
  %.08 = phi i32 [ %6, %.lr.ph ], [ 0, %1 ]
  %4 = tail call ptr @stat_tap_get_field_data(ptr noundef %0, i32 noundef %.08, i32 noundef 1)
  %5 = getelementptr inbounds nuw i8, ptr %4, i64 8
  store i32 0, ptr %5, align 8
  tail call void @stat_tap_set_field_data(ptr noundef %0, i32 noundef %.08, i32 noundef 1, ptr noundef %4)
  %6 = add nuw i32 %.08, 1
  %7 = load i32, ptr %2, align 4
  %8 = icmp ult i32 %6, %7
  br i1 %8, label %.lr.ph, label %._crit_edge, !llvm.loop !22

._crit_edge:                                      ; preds = %.lr.ph, %1
  ret void
}